target datalayout = "e-m:e-p270:32:32-p271:32:32-p272:64:64-i64:64-i128:128-f80:128-n8:16:32:64-S128"
target triple = "x86_64-pc-linux-gnu"

%struct.pmix_object_t = type { %union.pthread_mutex_t, ptr, i32, %struct.pmix_tma }
%union.pthread_mutex_t = type { %struct.__pthread_mutex_s }
%struct.__pthread_mutex_s = type { i32, i32, i32, i32, i32, i16, i16, %struct.__pthread_internal_list }
%struct.__pthread_internal_list = type { ptr, ptr }
%struct.pmix_tma = type { ptr, ptr, ptr, ptr, ptr, ptr, ptr, ptr }
%struct.timeval = type { i64, i64 }
%struct.prte_iof_read_event_t = type { %struct.pmix_object_t, ptr, ptr, %struct.timeval, i32, i16, i8, i8, i8, ptr }

; Function Attrs: nounwind uwtable
define internal void @prte_iof_base_read_event_construct(ptr noundef %0) #0 {
  %2 = alloca ptr, align 8
  store ptr %0, ptr %2, align 8, !tbaa !16
  %3 = load ptr, ptr %2, align 8, !tbaa !16
  %4 = getelementptr inbounds nuw %struct.prte_iof_read_event_t, ptr %3, i32 0, i32 1
  store ptr null, ptr %4, align 8, !tbaa !70
  %5 = load ptr, ptr %2, align 8, !tbaa !16
  %6 = getelementptr inbounds nuw %struct.prte_iof_read_event_t, ptr %5, i32 0, i32 4
  store i32 -1, ptr %6, align 8, !tbaa !73
  %7 = load ptr, ptr %2, align 8, !tbaa !16
  %8 = getelementptr inbounds nuw %struct.prte_iof_read_event_t, ptr %7, i32 0, i32 6
  store i8 0, ptr %8, align 2, !tbaa !74
  %9 = load ptr, ptr %2, align 8, !tbaa !16
  %10 = getelementptr inbounds nuw %struct.prte_iof_read_event_t, ptr %9, i32 0, i32 7
  store i8 0, ptr %10, align 1, !tbaa !75
  %11 = load ptr, ptr %2, align 8, !tbaa !16
  %12 = getelementptr inbounds nuw %struct.prte_iof_read_event_t, ptr %11, i32 0, i32 8
  store i8 0, ptr %12, align 8, !tbaa !76
  %13 = call ptr @prte_event_alloc()
  %14 = load ptr, ptr %2, align 8, !tbaa !16
  %15 = getelementptr inbounds nuw %struct.prte_iof_read_event_t, ptr %14, i32 0, i32 2
  store ptr %13, ptr %15, align 8, !tbaa !77
  %16 = load ptr, ptr %2, align 8, !tbaa !16
  %17 = getelementptr inbounds nuw %struct.prte_iof_read_event_t, ptr %16, i32 0, i32 9
  store ptr null, ptr %17, align 8, !tbaa !78
  %18 = load ptr, ptr %2, align 8, !tbaa !16
  %19 = getelementptr inbounds nuw %struct.prte_iof_read_event_t, ptr %18, i32 0, i32 3
  %20 = getelementptr inbounds nuw %struct.timeval, ptr %19, i32 0, i32 0
  store i64 0, ptr %20, align 8, !tbaa !79
  %21 = load ptr, ptr %2, align 8, !tbaa !16
  %22 = getelementptr inbounds nuw %struct.prte_iof_read_event_t, ptr %21, i32 0, i32 3
  %23 = getelementptr inbounds nuw %struct.timeval, ptr %22, i32 0, i32 1
  store i64 0, ptr %23, align 8, !tbaa !80
  ret void
}