; Function Attrs: nounwind uwtable
define internal void @prte_iof_base_read_event_construct(ptr noundef writeonly captures(none) initializes((120, 156), (158, 161), (168, 176)) %0) #0 {
  %2 = getelementptr inbounds nuw i8, ptr %0, i64 120
  store ptr null, ptr %2, align 8, !tbaa !55
  %3 = getelementptr inbounds nuw i8, ptr %0, i64 152
  store i32 -1, ptr %3, align 8, !tbaa !58
  %4 = getelementptr inbounds nuw i8, ptr %0, i64 158
  store i8 0, ptr %4, align 2, !tbaa !59
  %5 = getelementptr inbounds nuw i8, ptr %0, i64 159
  store i8 0, ptr %5, align 1, !tbaa !60
  %6 = getelementptr inbounds nuw i8, ptr %0, i64 160
  store i8 0, ptr %6, align 8, !tbaa !61
  %7 = tail call ptr @prte_event_alloc() #12
  %8 = getelementptr inbounds nuw i8, ptr %0, i64 128
  store ptr %7, ptr %8, align 8, !tbaa !62
  %9 = getelementptr inbounds nuw i8, ptr %0, i64 168
  store ptr null, ptr %9, align 8, !tbaa !63
  %10 = getelementptr inbounds nuw i8, ptr %0, i64 136
  tail call void @llvm.memset.p0.i64(ptr noundef nonnull align 8 dereferenceable(16) %10, i8 0, i64 16, i1 false)
  ret void
}